target datalayout = "e-m:e-p270:32:32-p271:32:32-p272:64:64-i64:64-i128:128-f80:128-n8:16:32:64-S128"
target triple = "x86_64-pc-linux-gnu"

%"struct.faiss::ClusteringParameters" = type { i32, i32, i8, i8, i8, i8, i8, i32, i32, i32, i64 }
%"struct.faiss::IndexBinary" = type { ptr, i32, i32, i64, i8, i8, i32 }
%"struct.faiss::IndexBinaryIVF" = type { %"struct.faiss::IndexBinary", ptr, i8, i64, i64, i8, i8, %"struct.faiss::DirectMap", ptr, i64, i8, %"struct.faiss::ClusteringParameters", ptr }
%"struct.faiss::DirectMap" = type { i32, %"class.std::vector", %"class.std::unordered_map" }
%"class.std::vector" = type { %"struct.std::_Vector_base" }
%"struct.std::_Vector_base" = type { %"struct.std::_Vector_base<long, std::allocator<long>>::_Vector_impl" }
%"struct.std::_Vector_base<long, std::allocator<long>>::_Vector_impl" = type { %"struct.std::_Vector_base<long, std::allocator<long>>::_Vector_impl_data" }
%"struct.std::_Vector_base<long, std::allocator<long>>::_Vector_impl_data" = type { ptr, ptr, ptr }
%"class.std::unordered_map" = type { %"class.std::_Hashtable" }
%"class.std::_Hashtable" = type { ptr, i64, %"struct.std::__detail::_Hash_node_base", i64, %"struct.std::__detail::_Prime_rehash_policy", ptr }
%"struct.std::__detail::_Hash_node_base" = type { ptr }
%"struct.std::__detail::_Prime_rehash_policy" = type { float, i64 }

; Function Attrs: mustprogress nounwind uwtable
define linkonce_odr void @_ZN5faiss20ClusteringParametersC2Ev(ptr noundef nonnull align 8 dereferenceable(40) %0) unnamed_addr #0 comdat align 2 {
  %2 = alloca ptr, align 8
  store ptr %0, ptr %2, align 8
  %3 = load ptr, ptr %2, align 8
  %4 = getelementptr inbounds %"struct.faiss::ClusteringParameters", ptr %3, i32 0, i32 0
  store i32 25, ptr %4, align 8
  %5 = getelementptr inbounds %"struct.faiss::ClusteringParameters", ptr %3, i32 0, i32 1
  store i32 1, ptr %5, align 4
  %6 = getelementptr inbounds %"struct.faiss::ClusteringParameters", ptr %3, i32 0, i32 2
  store i8 0, ptr %6, align 8
  %7 = getelementptr inbounds %"struct.faiss::ClusteringParameters", ptr %3, i32 0, i32 3
  store i8 0, ptr %7, align 1
  %8 = getelementptr inbounds %"struct.faiss::ClusteringParameters", ptr %3, i32 0, i32 4
  store i8 0, ptr %8, align 2
  %9 = getelementptr inbounds %"struct.faiss::ClusteringParameters", ptr %3, i32 0, i32 5
  store i8 0, ptr %9, align 1
  %10 = getelementptr inbounds %"struct.faiss::ClusteringParameters", ptr %3, i32 0, i32 6
  store i8 0, ptr %10, align 4
  %11 = getelementptr inbounds %"struct.faiss::ClusteringParameters", ptr %3, i32 0, i32 7
  store i32 39, ptr %11, align 8
  %12 = getelementptr inbounds %"struct.faiss::ClusteringParameters", ptr %3, i32 0, i32 8
  store i32 256, ptr %12, align 4
  %13 = getelementptr inbounds %"struct.faiss::ClusteringParameters", ptr %3, i32 0, i32 9
  store i32 1234, ptr %13, align 8
  %14 = getelementptr inbounds %"struct.faiss::ClusteringParameters", ptr %3, i32 0, i32 10
  store i64 32768, ptr %14, align 8
  ret void
}

; Function Attrs: mustprogress uwtable
define void @_ZN5faiss14IndexBinaryIVFC2Ev(ptr noundef nonnull align 8 dereferenceable(232) %0) unnamed_addr #1 align 2 personality ptr @__gxx_personality_v0 {
  %2 = alloca ptr, align 8
  %3 = alloca ptr, align 8
  %4 = alloca i32, align 4
  store ptr %0, ptr %2, align 8
  %5 = load ptr, ptr %2, align 8
  call void @_ZN5faiss11IndexBinaryC2ElNS_10MetricTypeE(ptr noundef nonnull align 8 dereferenceable(32) %5, i64 noundef 0, i32 noundef 1)
  store ptr getelementptr inbounds ({ [18 x ptr] }, ptr @_ZTVN5faiss14IndexBinaryIVFE, i32 0, i32 0, i32 2), ptr %5, align 8
  %6 = getelementptr inbounds %"struct.faiss::IndexBinaryIVF", ptr %5, i32 0, i32 1
  store ptr null, ptr %6, align 8
  %7 = getelementptr inbounds %"struct.faiss::IndexBinaryIVF", ptr %5, i32 0, i32 2
  store i8 1, ptr %7, align 8
  %8 = getelementptr inbounds %"struct.faiss::IndexBinaryIVF", ptr %5, i32 0, i32 3
  store i64 1, ptr %8, align 8
  %9 = getelementptr inbounds %"struct.faiss::IndexBinaryIVF", ptr %5, i32 0, i32 4
  store i64 0, ptr %9, align 8
  %10 = getelementptr inbounds %"struct.faiss::IndexBinaryIVF", ptr %5, i32 0, i32 5
  store i8 1, ptr %10, align 8
  %11 = getelementptr inbounds %"struct.faiss::IndexBinaryIVF", ptr %5, i32 0, i32 6
  store i8 0, ptr %11, align 1
  %12 = getelementptr inbounds %"struct.faiss::IndexBinaryIVF", ptr %5, i32 0, i32 7
  invoke void @_ZN5faiss9DirectMapC1Ev(ptr noundef nonnull align 8 dereferenceable(88) %12)
          to label %13 unwind label %19

13:                                               ; preds = %1
  %14 = getelementptr inbounds %"struct.faiss::IndexBinaryIVF", ptr %5, i32 0, i32 8
  store ptr null, ptr %14, align 8
  %15 = getelementptr inbounds %"struct.faiss::IndexBinaryIVF", ptr %5, i32 0, i32 9
  store i64 0, ptr %15, align 8
  %16 = getelementptr inbounds %"struct.faiss::IndexBinaryIVF", ptr %5, i32 0, i32 10
  store i8 0, ptr %16, align 8
  %17 = getelementptr inbounds %"struct.faiss::IndexBinaryIVF", ptr %5, i32 0, i32 11
  call void @_ZN5faiss20ClusteringParametersC2Ev(ptr noundef nonnull align 8 dereferenceable(40) %17) #14
  %18 = getelementptr inbounds %"struct.faiss::IndexBinaryIVF", ptr %5, i32 0, i32 12
  store ptr null, ptr %18, align 8
  ret void

19:                                               ; preds = %1
  %20 = landingpad { ptr, i32 }
          cleanup
  %21 = extractvalue { ptr, i32 } %20, 0
  store ptr %21, ptr %3, align 8
  %22 = extractvalue { ptr, i32 } %20, 1
  store i32 %22, ptr %4, align 4
  call void @_ZN5faiss11IndexBinaryD2Ev(ptr noundef nonnull align 8 dereferenceable(32) %5) #14
  br label %23

23:                                               ; preds = %19
  %24 = load ptr, ptr %3, align 8
  %25 = load i32, ptr %4, align 4
  %26 = insertvalue { ptr, i32 } poison, ptr %24, 0
  %27 = insertvalue { ptr, i32 } %26, i32 %25, 1
  resume { ptr, i32 } %27
}