; Function Attrs: mustprogress uwtable
define void @_ZN5faiss14IndexBinaryIVFC2Ev(ptr noundef nonnull align 8 dereferenceable(232) %0) unnamed_addr #1 align 2 personality ptr @__gxx_personality_v0 {
  tail call void @_ZN5faiss11IndexBinaryC2ElNS_10MetricTypeE(ptr noundef nonnull align 8 dereferenceable(32) %0, i64 noundef 0, i32 noundef 1)
  store ptr getelementptr inbounds ({ [18 x ptr] }, ptr @_ZTVN5faiss14IndexBinaryIVFE, i64 0, i32 0, i64 2), ptr %0, align 8
  %2 = getelementptr inbounds i8, ptr %0, i64 32
  store ptr null, ptr %2, align 8
  %3 = getelementptr inbounds i8, ptr %0, i64 40
  store i8 1, ptr %3, align 8
  %4 = getelementptr inbounds i8, ptr %0, i64 48
  store i64 1, ptr %4, align 8
  %5 = getelementptr inbounds i8, ptr %0, i64 56
  store i64 0, ptr %5, align 8
  %6 = getelementptr inbounds i8, ptr %0, i64 64
  store i8 1, ptr %6, align 8
  %7 = getelementptr inbounds i8, ptr %0, i64 65
  store i8 0, ptr %7, align 1
  %8 = getelementptr inbounds i8, ptr %0, i64 72
  invoke void @_ZN5faiss9DirectMapC1Ev(ptr noundef nonnull align 8 dereferenceable(88) %8)
          to label %9 unwind label %19

9:                                                ; preds = %1
  %10 = getelementptr inbounds i8, ptr %0, i64 160
  %11 = getelementptr inbounds i8, ptr %0, i64 184
  tail call void @llvm.memset.p0.i64(ptr noundef nonnull align 8 dereferenceable(17) %10, i8 0, i64 17, i1 false)
  store i32 25, ptr %11, align 8
  %12 = getelementptr inbounds i8, ptr %0, i64 188
  store i32 1, ptr %12, align 4
  %13 = getelementptr inbounds i8, ptr %0, i64 192
  %14 = getelementptr inbounds i8, ptr %0, i64 200
  tail call void @llvm.memset.p0.i64(ptr noundef nonnull align 8 dereferenceable(5) %13, i8 0, i64 5, i1 false)
  store i32 39, ptr %14, align 8
  %15 = getelementptr inbounds i8, ptr %0, i64 204
  store i32 256, ptr %15, align 4
  %16 = getelementptr inbounds i8, ptr %0, i64 208
  store i32 1234, ptr %16, align 8
  %17 = getelementptr inbounds i8, ptr %0, i64 216
  store i64 32768, ptr %17, align 8
  %18 = getelementptr inbounds i8, ptr %0, i64 224
  store ptr null, ptr %18, align 8
  ret void

19:                                               ; preds = %1
  %20 = landingpad { ptr, i32 }
          cleanup
  tail call void @_ZN5faiss11IndexBinaryD2Ev(ptr noundef nonnull align 8 dereferenceable(32) %0) #20
  resume { ptr, i32 } %20
}